target datalayout = "e-m:e-p270:32:32-p271:32:32-p272:64:64-i64:64-i128:128-f80:128-n8:16:32:64-S128"
target triple = "x86_64-pc-linux-gnu"

%struct.b2Vec2 = type { float, float }
%struct.b2JointSimArray = type { ptr, i32, i32 }
%struct.b2AtomicInt = type { i32 }
%struct.b2ConstraintGraph = type { [12 x %struct.b2GraphColor] }
%struct.b2GraphColor = type { %struct.b2BitSet, %struct.b2ContactSimArray, %struct.b2JointSimArray, %union.anon }
%struct.b2ContactSimArray = type { ptr, i32, i32 }
%union.anon = type { ptr }
%struct.b2BitSet = type { ptr, i32, i32 }
%struct.b2JointSim = type { i32, i32, i32, i32, %struct.b2Vec2, %struct.b2Vec2, float, float, float, float, %union.anon.0 }
%union.anon.0 = type { %struct.b2PrismaticJoint }
%struct.b2PrismaticJoint = type { %struct.b2Vec2, %struct.b2Vec2, float, float, float, float, float, float, float, float, float, float, float, i32, i32, %struct.b2Vec2, %struct.b2Vec2, %struct.b2Vec2, %struct.b2Vec2, float, float, %struct.b2Softness, i8, i8, i8 }
%struct.b2Softness = type { float, float, float }
%struct.b2StepContext = type { float, float, float, float, i32, %struct.b2Softness, %struct.b2Softness, %struct.b2Softness, float, float, ptr, ptr, ptr, ptr, ptr, i32, ptr, %struct.b2AtomicInt, ptr, ptr, ptr, i32, i32, ptr, i32, i8, [64 x i8], %struct.b2AtomicU32, [64 x i8] }
%struct.b2AtomicU32 = type { i32 }

; Function Attrs: nounwind uwtable
define hidden void @b2WarmStartOverflowJoints(ptr noundef %0) #0 {
  %2 = alloca ptr, align 8
  %3 = alloca ptr, align 8
  %4 = alloca ptr, align 8
  %5 = alloca i32, align 4
  %6 = alloca i32, align 4
  %7 = alloca ptr, align 8
  store ptr %0, ptr %2, align 8, !tbaa !278
  call void @llvm.lifetime.start.p0(i64 8, ptr %3) #9
  %8 = load ptr, ptr %2, align 8, !tbaa !278
  %9 = getelementptr inbounds nuw %struct.b2StepContext, ptr %8, i32 0, i32 11
  %10 = load ptr, ptr %9, align 8, !tbaa !280
  store ptr %10, ptr %3, align 8, !tbaa !289
  call void @llvm.lifetime.start.p0(i64 8, ptr %4) #9
  %11 = load ptr, ptr %3, align 8, !tbaa !289
  %12 = getelementptr inbounds nuw %struct.b2ConstraintGraph, ptr %11, i32 0, i32 0
  %13 = getelementptr inbounds [12 x %struct.b2GraphColor], ptr %12, i64 0, i64 11
  %14 = getelementptr inbounds nuw %struct.b2GraphColor, ptr %13, i32 0, i32 2
  %15 = getelementptr inbounds nuw %struct.b2JointSimArray, ptr %14, i32 0, i32 0
  %16 = load ptr, ptr %15, align 8, !tbaa !290
  store ptr %16, ptr %4, align 8, !tbaa !121
  call void @llvm.lifetime.start.p0(i64 4, ptr %5) #9
  %17 = load ptr, ptr %3, align 8, !tbaa !289
  %18 = getelementptr inbounds nuw %struct.b2ConstraintGraph, ptr %17, i32 0, i32 0
  %19 = getelementptr inbounds [12 x %struct.b2GraphColor], ptr %18, i64 0, i64 11
  %20 = getelementptr inbounds nuw %struct.b2GraphColor, ptr %19, i32 0, i32 2
  %21 = getelementptr inbounds nuw %struct.b2JointSimArray, ptr %20, i32 0, i32 1
  %22 = load i32, ptr %21, align 8, !tbaa !292
  store i32 %22, ptr %5, align 4, !tbaa !3
  call void @llvm.lifetime.start.p0(i64 4, ptr %6) #9
  store i32 0, ptr %6, align 4, !tbaa !3
  br label %23

23:                                               ; preds = %35, %1
  %24 = load i32, ptr %6, align 4, !tbaa !3
  %25 = load i32, ptr %5, align 4, !tbaa !3
  %26 = icmp slt i32 %24, %25
  br i1 %26, label %28, label %27

27:                                               ; preds = %23
  call void @llvm.lifetime.end.p0(i64 4, ptr %6) #9
  br label %38

28:                                               ; preds = %23
  call void @llvm.lifetime.start.p0(i64 8, ptr %7) #9
  %29 = load ptr, ptr %4, align 8, !tbaa !121
  %30 = load i32, ptr %6, align 4, !tbaa !3
  %31 = sext i32 %30 to i64
  %32 = getelementptr inbounds %struct.b2JointSim, ptr %29, i64 %31
  store ptr %32, ptr %7, align 8, !tbaa !121
  %33 = load ptr, ptr %7, align 8, !tbaa !121
  %34 = load ptr, ptr %2, align 8, !tbaa !278
  call void @b2WarmStartJoint(ptr noundef %33, ptr noundef %34)
  call void @llvm.lifetime.end.p0(i64 8, ptr %7) #9
  br label %35

35:                                               ; preds = %28
  %36 = load i32, ptr %6, align 4, !tbaa !3
  %37 = add nsw i32 %36, 1
  store i32 %37, ptr %6, align 4, !tbaa !3
  br label %23, !llvm.loop !294

38:                                               ; preds = %27
  call void @llvm.lifetime.end.p0(i64 4, ptr %5) #9
  call void @llvm.lifetime.end.p0(i64 8, ptr %4) #9
  call void @llvm.lifetime.end.p0(i64 8, ptr %3) #9
  ret void
}